; Function Attrs: mustprogress nounwind uwtable
define dso_local noundef nonnull align 8 dereferenceable(48) ptr @_ZN4llvmlsERNS_11raw_ostreamERKNS_9LiveRange7SegmentE(ptr noundef nonnull align 8 dereferenceable(48) %0, ptr noundef nonnull readonly align 8 captures(none) dereferenceable(24) %1) local_unnamed_addr #0 {
  %3 = alloca %"class.llvm::SlotIndex", align 8
  %4 = alloca %"class.llvm::SlotIndex", align 8
  %5 = getelementptr inbounds nuw i8, ptr %0, i64 32
  %6 = load ptr, ptr %5, align 8
  %7 = getelementptr inbounds nuw i8, ptr %0, i64 24
  %8 = load ptr, ptr %7, align 8
  %.not.i = icmp ult ptr %6, %8
  br i1 %.not.i, label %11, label %9

9:                                                ; preds = %2
  %10 = tail call noundef nonnull align 8 dereferenceable(48) ptr @_ZN4llvm11raw_ostream5writeEh(ptr noundef nonnull align 8 dereferenceable(48) %0, i8 noundef zeroext 91) #14
  br label %_ZN4llvm11raw_ostreamlsEc.exit

11:                                               ; preds = %2
  %12 = getelementptr inbounds nuw i8, ptr %6, i64 1
  store ptr %12, ptr %5, align 8
  store i8 91, ptr %6, align 1
  br label %_ZN4llvm11raw_ostreamlsEc.exit

_ZN4llvm11raw_ostreamlsEc.exit:                   ; preds = %9, %11
  %.0.i = phi ptr [ %10, %9 ], [ %0, %11 ]
  %.sroa.01.0.copyload = load i64, ptr %1, align 8
  call void @llvm.lifetime.start.p0(i64 8, ptr nonnull %4)
  store i64 %.sroa.01.0.copyload, ptr %4, align 8
  call void @_ZNK4llvm9SlotIndex5printERNS_11raw_ostreamE(ptr noundef nonnull align 8 dereferenceable(8) %4, ptr noundef nonnull align 8 dereferenceable(48) %.0.i) #14
  call void @llvm.lifetime.end.p0(i64 8, ptr nonnull %4)
  %13 = getelementptr inbounds nuw i8, ptr %.0.i, i64 32
  %14 = load ptr, ptr %13, align 8
  %15 = getelementptr inbounds nuw i8, ptr %.0.i, i64 24
  %16 = load ptr, ptr %15, align 8
  %.not.i5 = icmp ult ptr %14, %16
  br i1 %.not.i5, label %19, label %17

17:                                               ; preds = %_ZN4llvm11raw_ostreamlsEc.exit
  %18 = call noundef nonnull align 8 dereferenceable(48) ptr @_ZN4llvm11raw_ostream5writeEh(ptr noundef nonnull align 8 dereferenceable(48) %.0.i, i8 noundef zeroext 44) #14
  br label %_ZN4llvm11raw_ostreamlsEc.exit7

19:                                               ; preds = %_ZN4llvm11raw_ostreamlsEc.exit
  %20 = getelementptr inbounds nuw i8, ptr %14, i64 1
  store ptr %20, ptr %13, align 8
  store i8 44, ptr %14, align 1
  br label %_ZN4llvm11raw_ostreamlsEc.exit7

_ZN4llvm11raw_ostreamlsEc.exit7:                  ; preds = %17, %19
  %.0.i6 = phi ptr [ %18, %17 ], [ %.0.i, %19 ]
  %21 = getelementptr inbounds nuw i8, ptr %1, i64 8
  %.sroa.0.0.copyload = load i64, ptr %21, align 8
  call void @llvm.lifetime.start.p0(i64 8, ptr nonnull %3)
  store i64 %.sroa.0.0.copyload, ptr %3, align 8
  call void @_ZNK4llvm9SlotIndex5printERNS_11raw_ostreamE(ptr noundef nonnull align 8 dereferenceable(8) %3, ptr noundef nonnull align 8 dereferenceable(48) %.0.i6) #14
  call void @llvm.lifetime.end.p0(i64 8, ptr nonnull %3)
  %22 = getelementptr inbounds nuw i8, ptr %.0.i6, i64 32
  %23 = load ptr, ptr %22, align 8
  %24 = getelementptr inbounds nuw i8, ptr %.0.i6, i64 24
  %25 = load ptr, ptr %24, align 8
  %.not.i8 = icmp ult ptr %23, %25
  br i1 %.not.i8, label %28, label %26

26:                                               ; preds = %_ZN4llvm11raw_ostreamlsEc.exit7
  %27 = call noundef nonnull align 8 dereferenceable(48) ptr @_ZN4llvm11raw_ostream5writeEh(ptr noundef nonnull align 8 dereferenceable(48) %.0.i6, i8 noundef zeroext 58) #14
  br label %_ZN4llvm11raw_ostreamlsEc.exit10

28:                                               ; preds = %_ZN4llvm11raw_ostreamlsEc.exit7
  %29 = getelementptr inbounds nuw i8, ptr %23, i64 1
  store ptr %29, ptr %22, align 8
  store i8 58, ptr %23, align 1
  br label %_ZN4llvm11raw_ostreamlsEc.exit10

_ZN4llvm11raw_ostreamlsEc.exit10:                 ; preds = %26, %28
  %.0.i9 = phi ptr [ %27, %26 ], [ %.0.i6, %28 ]
  %30 = getelementptr inbounds nuw i8, ptr %1, i64 16
  %31 = load ptr, ptr %30, align 8
  %32 = load i32, ptr %31, align 8
  %33 = zext i32 %32 to i64
  %34 = call noundef nonnull align 8 dereferenceable(48) ptr @_ZN4llvm11raw_ostreamlsEm(ptr noundef nonnull align 8 dereferenceable(48) %.0.i9, i64 noundef %33) #14
  %35 = getelementptr inbounds nuw i8, ptr %34, i64 32
  %36 = load ptr, ptr %35, align 8
  %37 = getelementptr inbounds nuw i8, ptr %34, i64 24
  %38 = load ptr, ptr %37, align 8
  %.not.i11 = icmp ult ptr %36, %38
  br i1 %.not.i11, label %41, label %39

39:                                               ; preds = %_ZN4llvm11raw_ostreamlsEc.exit10
  %40 = call noundef nonnull align 8 dereferenceable(48) ptr @_ZN4llvm11raw_ostream5writeEh(ptr noundef nonnull align 8 dereferenceable(48) %34, i8 noundef zeroext 41) #14
  br label %_ZN4llvm11raw_ostreamlsEc.exit13

41:                                               ; preds = %_ZN4llvm11raw_ostreamlsEc.exit10
  %42 = getelementptr inbounds nuw i8, ptr %36, i64 1
  store ptr %42, ptr %35, align 8
  store i8 41, ptr %36, align 1
  br label %_ZN4llvm11raw_ostreamlsEc.exit13

_ZN4llvm11raw_ostreamlsEc.exit13:                 ; preds = %39, %41
  %.0.i12 = phi ptr [ %40, %39 ], [ %34, %41 ]
  ret ptr %.0.i12
}